target datalayout = "e-m:e-p270:32:32-p271:32:32-p272:64:64-i64:64-i128:128-f80:128-n8:16:32:64-S128"
target triple = "x86_64-pc-linux-gnu"

; Function Attrs: alwaysinline nounwind willreturn memory(none) uwtable
define internal zeroext i8 @av_clip_uint8_c(i32 noundef %0) #6 {
  %2 = alloca i8, align 1
  %3 = alloca i32, align 4
  store i32 %0, ptr %3, align 4, !tbaa !30
  %4 = load i32, ptr %3, align 4, !tbaa !30
  %5 = and i32 %4, -256
  %6 = icmp ne i32 %5, 0
  br i1 %6, label %7, label %12

7:                                                ; preds = %1
  %8 = load i32, ptr %3, align 4, !tbaa !30
  %9 = xor i32 %8, -1
  %10 = ashr i32 %9, 31
  %11 = trunc i32 %10 to i8
  store i8 %11, ptr %2, align 1
  br label %15

12:                                               ; preds = %1
  %13 = load i32, ptr %3, align 4, !tbaa !30
  %14 = trunc i32 %13 to i8
  store i8 %14, ptr %2, align 1
  br label %15

15:                                               ; preds = %12, %7
  %16 = load i8, ptr %2, align 1
  ret i8 %16
}

; Function Attrs: nounwind uwtable
define internal void @yuv2vyu444_2_c(ptr noundef %0, ptr noundef %1, ptr noundef %2, ptr noundef %3, ptr noundef %4, ptr noundef %5, i32 noundef %6, i32 noundef %7, i32 noundef %8, i32 noundef %9) #4 {
  %11 = alloca ptr, align 8
  %12 = alloca ptr, align 8
  %13 = alloca ptr, align 8
  %14 = alloca ptr, align 8
  %15 = alloca ptr, align 8
  %16 = alloca ptr, align 8
  %17 = alloca i32, align 4
  %18 = alloca i32, align 4
  %19 = alloca i32, align 4
  %20 = alloca i32, align 4
  %21 = alloca ptr, align 8
  %22 = alloca ptr, align 8
  %23 = alloca ptr, align 8
  %24 = alloca ptr, align 8
  %25 = alloca ptr, align 8
  %26 = alloca ptr, align 8
  %27 = alloca i32, align 4
  %28 = alloca i32, align 4
  %29 = alloca i32, align 4
  %30 = alloca i32, align 4
  %31 = alloca i32, align 4
  %32 = alloca i32, align 4
  store ptr %0, ptr %11, align 8, !tbaa !4
  store ptr %1, ptr %12, align 8, !tbaa !47
  store ptr %2, ptr %13, align 8, !tbaa !47
  store ptr %3, ptr %14, align 8, !tbaa !47
  store ptr %4, ptr %15, align 8, !tbaa !47
  store ptr %5, ptr %16, align 8, !tbaa !46
  store i32 %6, ptr %17, align 4, !tbaa !30
  store i32 %7, ptr %18, align 4, !tbaa !30
  store i32 %8, ptr %19, align 4, !tbaa !30
  store i32 %9, ptr %20, align 4, !tbaa !30
  call void @llvm.lifetime.start.p0(i64 8, ptr %21) #8
  %33 = load ptr, ptr %12, align 8, !tbaa !47
  %34 = getelementptr inbounds ptr, ptr %33, i64 0
  %35 = load ptr, ptr %34, align 8, !tbaa !45
  store ptr %35, ptr %21, align 8, !tbaa !45
  call void @llvm.lifetime.start.p0(i64 8, ptr %22) #8
  %36 = load ptr, ptr %12, align 8, !tbaa !47
  %37 = getelementptr inbounds ptr, ptr %36, i64 1
  %38 = load ptr, ptr %37, align 8, !tbaa !45
  store ptr %38, ptr %22, align 8, !tbaa !45
  call void @llvm.lifetime.start.p0(i64 8, ptr %23) #8
  %39 = load ptr, ptr %13, align 8, !tbaa !47
  %40 = getelementptr inbounds ptr, ptr %39, i64 0
  %41 = load ptr, ptr %40, align 8, !tbaa !45
  store ptr %41, ptr %23, align 8, !tbaa !45
  call void @llvm.lifetime.start.p0(i64 8, ptr %24) #8
  %42 = load ptr, ptr %13, align 8, !tbaa !47
  %43 = getelementptr inbounds ptr, ptr %42, i64 1
  %44 = load ptr, ptr %43, align 8, !tbaa !45
  store ptr %44, ptr %24, align 8, !tbaa !45
  call void @llvm.lifetime.start.p0(i64 8, ptr %25) #8
  %45 = load ptr, ptr %14, align 8, !tbaa !47
  %46 = getelementptr inbounds ptr, ptr %45, i64 0
  %47 = load ptr, ptr %46, align 8, !tbaa !45
  store ptr %47, ptr %25, align 8, !tbaa !45
  call void @llvm.lifetime.start.p0(i64 8, ptr %26) #8
  %48 = load ptr, ptr %14, align 8, !tbaa !47
  %49 = getelementptr inbounds ptr, ptr %48, i64 1
  %50 = load ptr, ptr %49, align 8, !tbaa !45
  store ptr %50, ptr %26, align 8, !tbaa !45
  call void @llvm.lifetime.start.p0(i64 4, ptr %27) #8
  %51 = load i32, ptr %18, align 4, !tbaa !30
  %52 = sub nsw i32 4096, %51
  store i32 %52, ptr %27, align 4, !tbaa !30
  call void @llvm.lifetime.start.p0(i64 4, ptr %28) #8
  %53 = load i32, ptr %19, align 4, !tbaa !30
  %54 = sub nsw i32 4096, %53
  store i32 %54, ptr %28, align 4, !tbaa !30
  call void @llvm.lifetime.start.p0(i64 4, ptr %29) #8
  store i32 0, ptr %29, align 4, !tbaa !30
  br label %55

55:                                               ; preds = %161, %10
  %56 = load i32, ptr %29, align 4, !tbaa !30
  %57 = load i32, ptr %17, align 4, !tbaa !30
  %58 = icmp slt i32 %56, %57
  br i1 %58, label %59, label %164

59:                                               ; preds = %55
  call void @llvm.lifetime.start.p0(i64 4, ptr %30) #8
  %60 = load ptr, ptr %21, align 8, !tbaa !45
  %61 = load i32, ptr %29, align 4, !tbaa !30
  %62 = sext i32 %61 to i64
  %63 = getelementptr inbounds i16, ptr %60, i64 %62
  %64 = load i16, ptr %63, align 2, !tbaa !49
  %65 = sext i16 %64 to i32
  %66 = load i32, ptr %27, align 4, !tbaa !30
  %67 = mul nsw i32 %65, %66
  %68 = load ptr, ptr %22, align 8, !tbaa !45
  %69 = load i32, ptr %29, align 4, !tbaa !30
  %70 = sext i32 %69 to i64
  %71 = getelementptr inbounds i16, ptr %68, i64 %70
  %72 = load i16, ptr %71, align 2, !tbaa !49
  %73 = sext i16 %72 to i32
  %74 = load i32, ptr %18, align 4, !tbaa !30
  %75 = mul nsw i32 %73, %74
  %76 = add nsw i32 %67, %75
  %77 = ashr i32 %76, 19
  store i32 %77, ptr %30, align 4, !tbaa !30
  call void @llvm.lifetime.start.p0(i64 4, ptr %31) #8
  %78 = load ptr, ptr %23, align 8, !tbaa !45
  %79 = load i32, ptr %29, align 4, !tbaa !30
  %80 = sext i32 %79 to i64
  %81 = getelementptr inbounds i16, ptr %78, i64 %80
  %82 = load i16, ptr %81, align 2, !tbaa !49
  %83 = sext i16 %82 to i32
  %84 = load i32, ptr %28, align 4, !tbaa !30
  %85 = mul nsw i32 %83, %84
  %86 = load ptr, ptr %24, align 8, !tbaa !45
  %87 = load i32, ptr %29, align 4, !tbaa !30
  %88 = sext i32 %87 to i64
  %89 = getelementptr inbounds i16, ptr %86, i64 %88
  %90 = load i16, ptr %89, align 2, !tbaa !49
  %91 = sext i16 %90 to i32
  %92 = load i32, ptr %19, align 4, !tbaa !30
  %93 = mul nsw i32 %91, %92
  %94 = add nsw i32 %85, %93
  %95 = ashr i32 %94, 19
  store i32 %95, ptr %31, align 4, !tbaa !30
  call void @llvm.lifetime.start.p0(i64 4, ptr %32) #8
  %96 = load ptr, ptr %25, align 8, !tbaa !45
  %97 = load i32, ptr %29, align 4, !tbaa !30
  %98 = sext i32 %97 to i64
  %99 = getelementptr inbounds i16, ptr %96, i64 %98
  %100 = load i16, ptr %99, align 2, !tbaa !49
  %101 = sext i16 %100 to i32
  %102 = load i32, ptr %28, align 4, !tbaa !30
  %103 = mul nsw i32 %101, %102
  %104 = load ptr, ptr %26, align 8, !tbaa !45
  %105 = load i32, ptr %29, align 4, !tbaa !30
  %106 = sext i32 %105 to i64
  %107 = getelementptr inbounds i16, ptr %104, i64 %106
  %108 = load i16, ptr %107, align 2, !tbaa !49
  %109 = sext i16 %108 to i32
  %110 = load i32, ptr %19, align 4, !tbaa !30
  %111 = mul nsw i32 %109, %110
  %112 = add nsw i32 %103, %111
  %113 = ashr i32 %112, 19
  store i32 %113, ptr %32, align 4, !tbaa !30
  %114 = load i32, ptr %30, align 4, !tbaa !30
  %115 = and i32 %114, 256
  %116 = icmp ne i32 %115, 0
  br i1 %116, label %117, label %121

117:                                              ; preds = %59
  %118 = load i32, ptr %30, align 4, !tbaa !30
  %119 = call zeroext i8 @av_clip_uint8_c(i32 noundef %118) #10
  %120 = zext i8 %119 to i32
  store i32 %120, ptr %30, align 4, !tbaa !30
  br label %121

121:                                              ; preds = %117, %59
  %122 = load i32, ptr %31, align 4, !tbaa !30
  %123 = and i32 %122, 256
  %124 = icmp ne i32 %123, 0
  br i1 %124, label %125, label %129

125:                                              ; preds = %121
  %126 = load i32, ptr %31, align 4, !tbaa !30
  %127 = call zeroext i8 @av_clip_uint8_c(i32 noundef %126) #10
  %128 = zext i8 %127 to i32
  store i32 %128, ptr %31, align 4, !tbaa !30
  br label %129

129:                                              ; preds = %125, %121
  %130 = load i32, ptr %32, align 4, !tbaa !30
  %131 = and i32 %130, 256
  %132 = icmp ne i32 %131, 0
  br i1 %132, label %133, label %137

133:                                              ; preds = %129
  %134 = load i32, ptr %32, align 4, !tbaa !30
  %135 = call zeroext i8 @av_clip_uint8_c(i32 noundef %134) #10
  %136 = zext i8 %135 to i32
  store i32 %136, ptr %32, align 4, !tbaa !30
  br label %137

137:                                              ; preds = %133, %129
  %138 = load i32, ptr %32, align 4, !tbaa !30
  %139 = trunc i32 %138 to i8
  %140 = load ptr, ptr %16, align 8, !tbaa !46
  %141 = load i32, ptr %29, align 4, !tbaa !30
  %142 = mul nsw i32 3, %141
  %143 = sext i32 %142 to i64
  %144 = getelementptr inbounds i8, ptr %140, i64 %143
  store i8 %139, ptr %144, align 1, !tbaa !51
  %145 = load i32, ptr %30, align 4, !tbaa !30
  %146 = trunc i32 %145 to i8
  %147 = load ptr, ptr %16, align 8, !tbaa !46
  %148 = load i32, ptr %29, align 4, !tbaa !30
  %149 = mul nsw i32 3, %148
  %150 = add nsw i32 %149, 1
  %151 = sext i32 %150 to i64
  %152 = getelementptr inbounds i8, ptr %147, i64 %151
  store i8 %146, ptr %152, align 1, !tbaa !51
  %153 = load i32, ptr %31, align 4, !tbaa !30
  %154 = trunc i32 %153 to i8
  %155 = load ptr, ptr %16, align 8, !tbaa !46
  %156 = load i32, ptr %29, align 4, !tbaa !30
  %157 = mul nsw i32 3, %156
  %158 = add nsw i32 %157, 2
  %159 = sext i32 %158 to i64
  %160 = getelementptr inbounds i8, ptr %155, i64 %159
  store i8 %154, ptr %160, align 1, !tbaa !51
  call void @llvm.lifetime.end.p0(i64 4, ptr %32) #8
  call void @llvm.lifetime.end.p0(i64 4, ptr %31) #8
  call void @llvm.lifetime.end.p0(i64 4, ptr %30) #8
  br label %161

161:                                              ; preds = %137
  %162 = load i32, ptr %29, align 4, !tbaa !30
  %163 = add nsw i32 %162, 1
  store i32 %163, ptr %29, align 4, !tbaa !30
  br label %55, !llvm.loop !87

164:                                              ; preds = %55
  call void @llvm.lifetime.end.p0(i64 4, ptr %29) #8
  call void @llvm.lifetime.end.p0(i64 4, ptr %28) #8
  call void @llvm.lifetime.end.p0(i64 4, ptr %27) #8
  call void @llvm.lifetime.end.p0(i64 8, ptr %26) #8
  call void @llvm.lifetime.end.p0(i64 8, ptr %25) #8
  call void @llvm.lifetime.end.p0(i64 8, ptr %24) #8
  call void @llvm.lifetime.end.p0(i64 8, ptr %23) #8
  call void @llvm.lifetime.end.p0(i64 8, ptr %22) #8
  call void @llvm.lifetime.end.p0(i64 8, ptr %21) #8
  ret void
}