; Function Attrs: nofree norecurse nosync nounwind memory(read, argmem: readwrite, inaccessiblemem: none) uwtable
define internal void @yuv2vyu444_2_c(ptr readnone captures(none) %0, ptr noundef readonly captures(none) %1, ptr noundef readonly captures(none) %2, ptr noundef readonly captures(none) %3, ptr readnone captures(none) %4, ptr noundef writeonly captures(none) %5, i32 noundef %6, i32 noundef %7, i32 noundef %8, i32 %9) #3 {
  %11 = load ptr, ptr %1, align 8, !tbaa !43
  %12 = getelementptr inbounds nuw i8, ptr %1, i64 8
  %13 = load ptr, ptr %12, align 8, !tbaa !43
  %14 = load ptr, ptr %2, align 8, !tbaa !43
  %15 = getelementptr inbounds nuw i8, ptr %2, i64 8
  %16 = load ptr, ptr %15, align 8, !tbaa !43
  %17 = load ptr, ptr %3, align 8, !tbaa !43
  %18 = getelementptr inbounds nuw i8, ptr %3, i64 8
  %19 = load ptr, ptr %18, align 8, !tbaa !43
  %20 = sub nsw i32 4096, %7
  %21 = sub nsw i32 4096, %8
  %22 = icmp sgt i32 %6, 0
  br i1 %22, label %.lr.ph.preheader, label %._crit_edge

.lr.ph.preheader:                                 ; preds = %10
  %wide.trip.count = zext nneg i32 %6 to i64
  br label %.lr.ph

.lr.ph:                                           ; preds = %.lr.ph.preheader, %.lr.ph
  %indvars.iv = phi i64 [ 0, %.lr.ph.preheader ], [ %indvars.iv.next, %.lr.ph ]
  %23 = getelementptr inbounds nuw i16, ptr %11, i64 %indvars.iv
  %24 = load i16, ptr %23, align 2, !tbaa !39
  %25 = sext i16 %24 to i32
  %26 = mul nsw i32 %20, %25
  %27 = getelementptr inbounds nuw i16, ptr %13, i64 %indvars.iv
  %28 = load i16, ptr %27, align 2, !tbaa !39
  %29 = sext i16 %28 to i32
  %30 = mul nsw i32 %7, %29
  %31 = add nsw i32 %30, %26
  %32 = ashr i32 %31, 19
  %33 = getelementptr inbounds nuw i16, ptr %14, i64 %indvars.iv
  %34 = load i16, ptr %33, align 2, !tbaa !39
  %35 = sext i16 %34 to i32
  %36 = mul nsw i32 %21, %35
  %37 = getelementptr inbounds nuw i16, ptr %16, i64 %indvars.iv
  %38 = load i16, ptr %37, align 2, !tbaa !39
  %39 = sext i16 %38 to i32
  %40 = mul nsw i32 %8, %39
  %41 = add nsw i32 %40, %36
  %42 = ashr i32 %41, 19
  %43 = getelementptr inbounds nuw i16, ptr %17, i64 %indvars.iv
  %44 = load i16, ptr %43, align 2, !tbaa !39
  %45 = sext i16 %44 to i32
  %46 = mul nsw i32 %21, %45
  %47 = getelementptr inbounds nuw i16, ptr %19, i64 %indvars.iv
  %48 = load i16, ptr %47, align 2, !tbaa !39
  %49 = sext i16 %48 to i32
  %50 = mul nsw i32 %8, %49
  %51 = add nsw i32 %50, %46
  %52 = ashr i32 %51, 19
  %53 = and i32 %31, 134217728
  %.not = icmp eq i32 %53, 0
  %.not.i = icmp ult i32 %32, 256
  %isnotneg.i = icmp sgt i32 %32, -1
  %54 = sext i1 %isnotneg.i to i32
  %55 = or i1 %.not, %.not.i
  %.044 = select i1 %55, i32 %32, i32 %54
  %56 = and i32 %41, 134217728
  %.not46 = icmp eq i32 %56, 0
  %.not.i48 = icmp ult i32 %42, 256
  %isnotneg.i49 = icmp sgt i32 %42, -1
  %57 = sext i1 %isnotneg.i49 to i32
  %58 = or i1 %.not46, %.not.i48
  %.043 = select i1 %58, i32 %42, i32 %57
  %59 = and i32 %51, 134217728
  %.not47 = icmp eq i32 %59, 0
  %.not.i51 = icmp ult i32 %52, 256
  %isnotneg.i52 = icmp sgt i32 %52, -1
  %60 = sext i1 %isnotneg.i52 to i32
  %61 = or i1 %.not47, %.not.i51
  %.0 = select i1 %61, i32 %52, i32 %60
  %62 = trunc i32 %.0 to i8
  %63 = mul nuw nsw i64 %indvars.iv, 3
  %64 = getelementptr inbounds nuw i8, ptr %5, i64 %63
  store i8 %62, ptr %64, align 1, !tbaa !41
  %65 = trunc i32 %.044 to i8
  %66 = getelementptr inbounds nuw i8, ptr %64, i64 1
  store i8 %65, ptr %66, align 1, !tbaa !41
  %67 = trunc i32 %.043 to i8
  %68 = getelementptr inbounds nuw i8, ptr %64, i64 2
  store i8 %67, ptr %68, align 1, !tbaa !41
  %indvars.iv.next = add nuw nsw i64 %indvars.iv, 1
  %exitcond.not = icmp eq i64 %indvars.iv.next, %wide.trip.count
  br i1 %exitcond.not, label %._crit_edge, label %.lr.ph, !llvm.loop !139

._crit_edge:                                      ; preds = %.lr.ph, %10
  ret void
}